Certificate:
    Data:
        Version: 3 (0x2)
        Serial Number: 1 (0x1)
        Signature Algorithm: sha256WithRSAEncryption
        Issuer: CN=hss.OpenAir5G.Alliance, C=FR, ST=PACA, L=Aix, O=Eurecom, OU=CM
        Validity
            Not Before: Apr 30 11:59:43 2020 GMT
            Not After : Apr 30 11:59:43 2021 GMT
        Subject: C=FR, ST=PACA, O=Eurecom, OU=CM, CN=hss.OpenAir5G.Alliance
        Subject Public Key Info:
            Public Key Algorithm: rsaEncryption
                RSA Public-Key: (1024 bit)
                Modulus:
                    00:d0:74:ec:c9:18:b9:30:61:6a:6a:23:7f:00:39:
                    ab:10:e1:52:ad:a1:e9:71:70:e6:76:1c:4d:da:ef:
                    c3:55:62:07:93:de:d0:cd:86:88:45:ba:a0:dd:59:
                    5e:19:e2:2e:d2:aa:71:cb:14:a0:9c:2e:39:3d:ff:
                    2d:75:a3:b6:48:e0:90:7e:39:74:72:b9:79:2a:78:
                    ad:3b:b1:52:40:0a:51:4a:0b:92:32:ff:63:6a:f8:
                    fb:be:e0:00:c9:8c:73:03:19:47:e7:56:9f:8c:d8:
                    c5:03:31:bf:58:df:c3:62:51:9f:36:20:b0:83:52:
                    8a:1e:92:6e:f4:e5:cd:d5:4f
                Exponent: 65537 (0x10001)
        X509v3 extensions:
            X509v3 Basic Constraints: 
                CA:FALSE
            Netscape Comment: 
                OpenSSL Generated Certificate
            X509v3 Subject Key Identifier: 
                C6:5C:3D:D3:92:5C:FE:6E:85:25:56:97:AC:9B:73:A7:38:C8:29:46
            X509v3 Authority Key Identifier: 
                keyid:3C:34:AD:0C:F9:ED:13:90:58:C1:45:92:02:79:2B:F9:65:E2:02:73

    Signature Algorithm: sha256WithRSAEncryption
         1f:f2:53:45:27:de:3e:78:71:93:ac:79:cb:b6:43:cf:e2:a4:
         ff:dc:55:75:87:2c:85:bf:ab:7a:d0:29:06:6d:c9:cb:08:21:
         b7:c1:50:e6:1f:f6:21:fd:b1:16:b8:70:f5:17:08:00:cc:5a:
         ea:2f:e9:e4:db:5a:96:e3:46:ee:fc:4f:64:fb:f1:51:61:92:
         a0:c9:7b:e9:6b:b2:d9:3f:6e:d6:c7:fb:a1:d2:48:c8:bd:62:
         f0:59:2a:7f:f7:6d:b6:96:36:ae:b9:e3:8b:7f:87:40:f8:20:
         72:08:3a:38:33:a9:ab:01:40:9a:01:dd:48:a4:e5:57:73:46:
         3d:97
-----BEGIN CERTIFICATE-----
MIICtzCCAiCgAwIBAgIBATANBgkqhkiG9w0BAQsFADBqMR8wHQYDVQQDDBZoc3Mu
T3BlbkFpcjVHLkFsbGlhbmNlMQswCQYDVQQGEwJGUjENMAsGA1UECAwEUEFDQTEM
MAoGA1UEBwwDQWl4MRAwDgYDVQQKDAdFdXJlY29tMQswCQYDVQQLDAJDTTAeFw0y
MDA0MzAxMTU5NDNaFw0yMTA0MzAxMTU5NDNaMFwxCzAJBgNVBAYTAkZSMQ0wCwYD
VQQIDARQQUNBMRAwDgYDVQQKDAdFdXJlY29tMQswCQYDVQQLDAJDTTEfMB0GA1UE
AwwWaHNzLk9wZW5BaXI1Ry5BbGxpYW5jZTCBnzANBgkqhkiG9w0BAQEFAAOBjQAw
gYkCgYEA0HTsyRi5MGFqaiN/ADmrEOFSraHpcXDmdhxN2u/DVWIHk97QzYaIRbqg
3VleGeIu0qpxyxSgnC45Pf8tdaO2SOCQfjl0crl5KnitO7FSQApRSguSMv9javj7
vuAAyYxzAxlH51afjNjFAzG/WN/DYlGfNiCwg1KKHpJu9OXN1U8CAwEAAaN7MHkw
CQYDVR0TBAIwADAsBglghkgBhvhCAQ0EHxYdT3BlblNTTCBHZW5lcmF0ZWQgQ2Vy
dGlmaWNhdGUwHQYDVR0OBBYEFMZcPdOSXP5uhSVWl6ybc6c4yClGMB8GA1UdIwQY
MBaAFDw0rQz57ROQWMFFkgJ5K/ll4gJzMA0GCSqGSIb3DQEBCwUAA4GBAB/yU0Un
3j54cZOsecu2Q8/ipP/cVXWHLIW/q3rQKQZtycsIIbfBUOYf9iH9sRa4cPUXCADM
Wuov6eTbWpbjRu78T2T78VFhkqDJe+lrstk/btbH+6HSSMi9YvBZKn/3bbaWNq65
44t/h0D4IHIIOjgzqasBQJoB3Uik5VdzRj2X
-----END CERTIFICATE-----
