Certificate:
    Data:
        Version: 3 (0x2)
        Serial Number: 1 (0x1)
        Signature Algorithm: sha256WithRSAEncryption
        Issuer: CN=oaicn-desktop.OpenAir5G.Alliance, C=FR, ST=PACA, L=Aix, O=Eurecom, OU=CM
        Validity
            Not Before: Apr 30 12:00:28 2020 GMT
            Not After : Apr 30 12:00:28 2021 GMT
        Subject: C=FR, ST=PACA, O=Eurecom, OU=CM, CN=oaicn-desktop.OpenAir5G.Alliance
        Subject Public Key Info:
            Public Key Algorithm: rsaEncryption
                RSA Public-Key: (1024 bit)
                Modulus:
                    00:c5:2f:f3:33:f3:f2:58:52:50:0e:04:be:18:23:
                    e9:5d:dc:d4:d5:8a:6e:aa:13:5f:b1:f2:30:13:1c:
                    44:58:52:41:ac:80:4c:3d:38:d5:1b:b5:87:05:3c:
                    47:0c:ef:70:84:05:d3:ae:16:3f:91:d8:8d:eb:2f:
                    05:fd:75:e9:f7:ba:99:bd:3c:59:fa:ca:99:96:7b:
                    09:f8:b4:5d:06:4a:0e:d7:c6:1f:87:f9:33:db:11:
                    b1:92:e0:f9:24:cf:3c:db:af:42:11:2c:d5:c9:d1:
                    40:ad:14:56:7a:6b:63:f9:d0:f5:cb:99:fd:12:7d:
                    1e:f1:e6:6c:a7:96:5b:13:a1
                Exponent: 65537 (0x10001)
        X509v3 extensions:
            X509v3 Basic Constraints: 
                CA:FALSE
            Netscape Comment: 
                OpenSSL Generated Certificate
            X509v3 Subject Key Identifier: 
                F2:11:27:0F:A2:45:10:10:F5:91:54:3E:B3:2D:78:03:8B:EC:E7:A2
            X509v3 Authority Key Identifier: 
                keyid:5C:A0:73:A9:19:10:66:85:0B:16:6A:6A:F3:4E:9D:2D:13:E0:8D:E2

    Signature Algorithm: sha256WithRSAEncryption
         22:9c:bc:2c:08:84:94:1f:d0:36:cc:34:e0:da:2f:60:53:de:
         51:b9:83:83:eb:76:34:2c:f5:3d:8d:e0:c2:e6:f1:0c:b5:95:
         74:a8:cb:fc:78:fb:31:0c:50:17:04:a3:a6:06:23:c8:a6:07:
         28:39:12:08:45:98:8b:1a:87:e7:a9:31:27:59:e3:65:c1:7e:
         4c:0f:41:3b:7c:18:b4:a2:9c:03:69:3c:b8:58:6b:59:81:43:
         ea:e2:e2:65:84:25:ef:dc:fd:7d:f9:b4:57:2a:74:2f:fe:f4:
         c0:14:ea:ca:a2:26:2c:a6:67:3e:63:b7:06:33:19:61:1a:e4:
         ce:41
-----BEGIN CERTIFICATE-----
MIICyzCCAjSgAwIBAgIBATANBgkqhkiG9w0BAQsFADB0MSkwJwYDVQQDDCBvYWlj
bi1kZXNrdG9wLk9wZW5BaXI1Ry5BbGxpYW5jZTELMAkGA1UEBhMCRlIxDTALBgNV
BAgMBFBBQ0ExDDAKBgNVBAcMA0FpeDEQMA4GA1UECgwHRXVyZWNvbTELMAkGA1UE
CwwCQ00wHhcNMjAwNDMwMTIwMDI4WhcNMjEwNDMwMTIwMDI4WjBmMQswCQYDVQQG
EwJGUjENMAsGA1UECAwEUEFDQTEQMA4GA1UECgwHRXVyZWNvbTELMAkGA1UECwwC
Q00xKTAnBgNVBAMMIG9haWNuLWRlc2t0b3AuT3BlbkFpcjVHLkFsbGlhbmNlMIGf
MA0GCSqGSIb3DQEBAQUAA4GNADCBiQKBgQDFL/Mz8/JYUlAOBL4YI+ld3NTVim6q
E1+x8jATHERYUkGsgEw9ONUbtYcFPEcM73CEBdOuFj+R2I3rLwX9den3upm9PFn6
ypmWewn4tF0GSg7Xxh+H+TPbEbGS4Pkkzzzbr0IRLNXJ0UCtFFZ6a2P50PXLmf0S
fR7x5mynllsToQIDAQABo3sweTAJBgNVHRMEAjAAMCwGCWCGSAGG+EIBDQQfFh1P
cGVuU1NMIEdlbmVyYXRlZCBDZXJ0aWZpY2F0ZTAdBgNVHQ4EFgQU8hEnD6JFEBD1
kVQ+sy14A4vs56IwHwYDVR0jBBgwFoAUXKBzqRkQZoULFmpq806dLRPgjeIwDQYJ
KoZIhvcNAQELBQADgYEAIpy8LAiElB/QNsw04NovYFPeUbmDg+t2NCz1PY3gwubx
DLWVdKjL/Hj7MQxQFwSjpgYjyKYHKDkSCEWYixqH56kxJ1njZcF+TA9BO3wYtKKc
A2k8uFhrWYFD6uLiZYQl79z9ffm0Vyp0L/70wBTqyqImLKZnPmO3BjMZYRrkzkE=
-----END CERTIFICATE-----
